target datalayout = "e-m:e-p270:32:32-p271:32:32-p272:64:64-i64:64-i128:128-f80:128-n8:16:32:64-S128"
target triple = "x86_64-pc-linux-gnu"

%struct.VVCTask = type { %union.anon.2, i32, i32, i32, i32, ptr, %struct.ProgressListener, [2 x [29 x %struct.ProgressListener]], ptr, ptr, i32, [10 x i8], i8 }
%union.anon.2 = type { %struct.FFTask }
%struct.FFTask = type { ptr, i32 }
%struct.ProgressListener = type { %struct.VVCProgressListener, ptr, ptr }
%struct.VVCProgressListener = type { i32, i32, ptr, ptr }
%struct.VVCFrameContext = type { ptr, [17 x %struct.VVCFrame], ptr, ptr, %struct.VVCFrameParamSets, ptr, i32, i32, ptr, %struct.VVCDSPContext, %struct.VideoDSPContext, ptr, i64, ptr, ptr, ptr, ptr, %struct.anon }
%struct.VVCFrame = type { ptr, ptr, ptr, ptr, ptr, ptr, i32, i32, i32, %struct.VVCWindow, i32, i32, ptr, ptr, i16, i8, ptr }
%struct.VVCWindow = type { i16, i16, i16, i16 }
%struct.VVCFrameParamSets = type { ptr, ptr, %struct.VVCPH, [8 x ptr], %struct.VVCLMCS, ptr }
%struct.VVCPH = type { ptr, ptr, i32, i32, i8, [3 x i16], i8, [3 x i16], %struct.PredWeightTable }
%struct.PredWeightTable = type { [2 x i8], [2 x i8], [2 x [2 x [15 x i8]]], [2 x [3 x [15 x i16]]], [2 x [3 x [15 x i16]]] }
%struct.VVCLMCS = type { i8, i8, %union.anon, %union.anon, [17 x i16], [16 x i16] }
%union.anon = type { [4096 x i16] }
%struct.VVCDSPContext = type { %struct.VVCInterDSPContext, %struct.VVCIntraDSPContext, %struct.VVCItxDSPContext, %struct.VVCLMCSDSPContext, %struct.VVCLFDSPContext, %struct.VVCSAODSPContext, %struct.VVCALFDSPContext }
%struct.VVCInterDSPContext = type { [2 x [7 x [2 x [2 x ptr]]]], [2 x [7 x [2 x [2 x ptr]]]], [2 x [7 x [2 x [2 x ptr]]]], [2 x [7 x ptr]], [2 x [7 x ptr]], [2 x [7 x ptr]], ptr, ptr, ptr, ptr, ptr, ptr, ptr, ptr, ptr, ptr, ptr, [2 x [2 x ptr]] }
%struct.VVCIntraDSPContext = type { ptr, ptr, ptr, ptr, ptr, ptr, ptr, ptr, ptr, ptr }
%struct.VVCItxDSPContext = type { ptr, ptr, [3 x [6 x ptr]], ptr, ptr }
%struct.VVCLMCSDSPContext = type { ptr }
%struct.VVCLFDSPContext = type { [2 x ptr], [2 x ptr], [2 x ptr] }
%struct.VVCSAODSPContext = type { [9 x ptr], [9 x ptr], [2 x ptr] }
%struct.VVCALFDSPContext = type { [2 x ptr], ptr, ptr, ptr }
%struct.VideoDSPContext = type { ptr, ptr }
%struct.anon = type { ptr, ptr, ptr, ptr, [2 x ptr], [2 x ptr], [2 x ptr], [2 x ptr], [2 x ptr], [3 x ptr], ptr, ptr, [2 x ptr], ptr, ptr, [2 x ptr], ptr, ptr, ptr, [2 x ptr], ptr, [3 x ptr], ptr, [2 x ptr], [2 x ptr], [2 x ptr], [2 x [3 x ptr]], [2 x ptr], [2 x ptr], [3 x ptr], [3 x ptr], [3 x [2 x ptr]], [3 x [2 x ptr]], ptr, ptr, ptr, [3 x ptr], %struct.anon.0 }
%struct.anon.0 = type { i32, i32, i32, i32, i32, i32, i32, i32, i32, i32, i32, i32 }
%struct.VVCFrameThread = type { i32, ptr, ptr, i32, i32, i32, i32, i32, i32, [2 x i32], %union.pthread_mutex_t, %union.pthread_cond_t }
%union.pthread_mutex_t = type { %struct.__pthread_mutex_s }
%struct.__pthread_mutex_s = type { i32, i32, i32, i32, i32, i16, i16, %struct.__pthread_internal_list }
%struct.__pthread_internal_list = type { ptr, ptr }
%union.pthread_cond_t = type { %struct.__pthread_cond_s }
%struct.__pthread_cond_s = type { %union.__atomic_wide_counter, %union.__atomic_wide_counter, [2 x i32], [2 x i32], i32, i32, [2 x i32] }
%union.__atomic_wide_counter = type { i64 }

; Function Attrs: nounwind uwtable
define internal void @sheduled_done(ptr noundef %0, ptr noundef %1) #0 {
  %3 = alloca ptr, align 8
  %4 = alloca ptr, align 8
  %5 = alloca i32, align 4
  %6 = alloca i32, align 4
  store ptr %0, ptr %3, align 8, !tbaa !68
  store ptr %1, ptr %4, align 8, !tbaa !18
  %7 = load ptr, ptr %4, align 8, !tbaa !18
  store i32 1, ptr %5, align 4, !tbaa !9
  %8 = load i32, ptr %5, align 4
  %9 = atomicrmw sub ptr %7, i32 %8 seq_cst, align 4
  store i32 %9, ptr %6, align 4
  %10 = load i32, ptr %6, align 4, !tbaa !9
  %11 = icmp eq i32 %10, 1
  br i1 %11, label %12, label %22

12:                                               ; preds = %2
  %13 = load ptr, ptr %3, align 8, !tbaa !68
  %14 = getelementptr inbounds nuw %struct.VVCFrameThread, ptr %13, i32 0, i32 10
  %15 = call i32 @pthread_mutex_lock(ptr noundef %14) #7
  %16 = load ptr, ptr %3, align 8, !tbaa !68
  %17 = getelementptr inbounds nuw %struct.VVCFrameThread, ptr %16, i32 0, i32 11
  %18 = call i32 @pthread_cond_signal(ptr noundef %17) #7
  %19 = load ptr, ptr %3, align 8, !tbaa !68
  %20 = getelementptr inbounds nuw %struct.VVCFrameThread, ptr %19, i32 0, i32 10
  %21 = call i32 @pthread_mutex_unlock(ptr noundef %20) #7
  br label %22

22:                                               ; preds = %12, %2
  ret void
}

; Function Attrs: nounwind uwtable
define internal void @progress_done(ptr noundef %0, i32 noundef %1) #0 {
  %3 = alloca ptr, align 8
  %4 = alloca i32, align 4
  %5 = alloca ptr, align 8
  %6 = alloca ptr, align 8
  %7 = alloca ptr, align 8
  store ptr %0, ptr %3, align 8, !tbaa !200
  store i32 %1, ptr %4, align 4, !tbaa !9
  call void @llvm.lifetime.start.p0(i64 8, ptr %5) #7
  %8 = load ptr, ptr %3, align 8, !tbaa !200
  store ptr %8, ptr %5, align 8, !tbaa !193
  call void @llvm.lifetime.start.p0(i64 8, ptr %6) #7
  %9 = load ptr, ptr %5, align 8, !tbaa !193
  %10 = getelementptr inbounds nuw %struct.ProgressListener, ptr %9, i32 0, i32 1
  %11 = load ptr, ptr %10, align 8, !tbaa !195
  store ptr %11, ptr %6, align 8, !tbaa !19
  call void @llvm.lifetime.start.p0(i64 8, ptr %7) #7
  %12 = load ptr, ptr %6, align 8, !tbaa !19
  %13 = getelementptr inbounds nuw %struct.VVCTask, ptr %12, i32 0, i32 5
  %14 = load ptr, ptr %13, align 8, !tbaa !23
  %15 = getelementptr inbounds nuw %struct.VVCFrameContext, ptr %14, i32 0, i32 11
  %16 = load ptr, ptr %15, align 8, !tbaa !31
  store ptr %16, ptr %7, align 8, !tbaa !68
  %17 = load ptr, ptr %5, align 8, !tbaa !193
  %18 = getelementptr inbounds nuw %struct.ProgressListener, ptr %17, i32 0, i32 2
  %19 = load ptr, ptr %18, align 8, !tbaa !196
  %20 = load ptr, ptr %7, align 8, !tbaa !68
  %21 = load ptr, ptr %6, align 8, !tbaa !19
  %22 = getelementptr inbounds nuw %struct.VVCTask, ptr %21, i32 0, i32 2
  %23 = load i32, ptr %22, align 4, !tbaa !78
  %24 = load ptr, ptr %6, align 8, !tbaa !19
  %25 = getelementptr inbounds nuw %struct.VVCTask, ptr %24, i32 0, i32 3
  %26 = load i32, ptr %25, align 8, !tbaa !79
  %27 = load i32, ptr %4, align 4, !tbaa !9
  call void @frame_thread_add_score(ptr noundef %19, ptr noundef %20, i32 noundef %23, i32 noundef %26, i32 noundef %27)
  %28 = load ptr, ptr %7, align 8, !tbaa !68
  %29 = load ptr, ptr %7, align 8, !tbaa !68
  %30 = getelementptr inbounds nuw %struct.VVCFrameThread, ptr %29, i32 0, i32 8
  call void @sheduled_done(ptr noundef %28, ptr noundef %30)
  call void @llvm.lifetime.end.p0(i64 8, ptr %7) #7
  call void @llvm.lifetime.end.p0(i64 8, ptr %6) #7
  call void @llvm.lifetime.end.p0(i64 8, ptr %5) #7
  ret void
}

; Function Attrs: nounwind uwtable
define internal void @pixel_done(ptr noundef %0) #0 {
  %2 = alloca ptr, align 8
  store ptr %0, ptr %2, align 8, !tbaa !200
  %3 = load ptr, ptr %2, align 8, !tbaa !200
  call void @progress_done(ptr noundef %3, i32 noundef 3)
  ret void
}